
SysTick_IT.elf:     file format elf32-littlearm

Sections:
Idx Name          Size      VMA       LMA       File off  Algn
  0 .isr_vector   000001a8  08000000  08000000  00010000  2**0
                  CONTENTS, ALLOC, LOAD, READONLY, DATA
  1 .text         00000ab4  080001a8  080001a8  000101a8  2**2
                  CONTENTS, ALLOC, LOAD, READONLY, CODE
  2 .rodata       00000000  08000c5c  08000c5c  00020004  2**0
                  CONTENTS, ALLOC, LOAD, DATA
  3 .ARM.extab    00000000  08000c5c  08000c5c  00020004  2**0
                  CONTENTS
  4 .ARM          00000000  08000c5c  08000c5c  00020004  2**0
                  CONTENTS
  5 .preinit_array 00000000  08000c5c  08000c5c  00020004  2**0
                  CONTENTS, ALLOC, LOAD, DATA
  6 .init_array   00000004  08000c5c  08000c5c  00010c5c  2**2
                  CONTENTS, ALLOC, LOAD, DATA
  7 .fini_array   00000004  08000c60  08000c60  00010c60  2**2
                  CONTENTS, ALLOC, LOAD, DATA
  8 .data         00000004  20000000  08000c64  00020000  2**2
                  CONTENTS, ALLOC, LOAD, DATA
  9 .ccmram       00000000  10000000  10000000  00020004  2**0
                  CONTENTS
 10 .bss          00000020  20000004  20000004  00020004  2**2
                  ALLOC
 11 ._user_heap_stack 00000604  20000024  20000024  00020004  2**0
                  ALLOC
 12 .ARM.attributes 00000030  00000000  00000000  00020004  2**0
                  CONTENTS, READONLY
 13 .comment      00000043  00000000  00000000  00020034  2**0
                  CONTENTS, READONLY
 14 .debug_info   000012fd  00000000  00000000  00020077  2**0
                  CONTENTS, READONLY, DEBUGGING, OCTETS
 15 .debug_abbrev 000004c2  00000000  00000000  00021374  2**0
                  CONTENTS, READONLY, DEBUGGING, OCTETS
 16 .debug_aranges 000000e0  00000000  00000000  00021838  2**3
                  CONTENTS, READONLY, DEBUGGING, OCTETS
 17 .debug_rnglists 00000091  00000000  00000000  00021918  2**0
                  CONTENTS, READONLY, DEBUGGING, OCTETS
 18 .debug_macro  00018fd9  00000000  00000000  000219a9  2**0
                  CONTENTS, READONLY, DEBUGGING, OCTETS
 19 .debug_line   000019df  00000000  00000000  0003a982  2**0
                  CONTENTS, READONLY, DEBUGGING, OCTETS
 20 .debug_str    0008c37c  00000000  00000000  0003c361  2**0
                  CONTENTS, READONLY, DEBUGGING, OCTETS
 21 .debug_frame  00000314  00000000  00000000  000c86e0  2**2
                  CONTENTS, READONLY, DEBUGGING, OCTETS
 22 .debug_line_str 0000007d  00000000  00000000  000c89f4  2**0
                  CONTENTS, READONLY, DEBUGGING, OCTETS

Disassembly of section .text:

080001a8 <__do_global_dtors_aux>:
 80001a8:	b510      	push	{r4, lr}
 80001aa:	4c05      	ldr	r4, [pc, #20]	; (80001c0 <__do_global_dtors_aux+0x18>)
 80001ac:	7823      	ldrb	r3, [r4, #0]
 80001ae:	b933      	cbnz	r3, 80001be <__do_global_dtors_aux+0x16>
 80001b0:	4b04      	ldr	r3, [pc, #16]	; (80001c4 <__do_global_dtors_aux+0x1c>)
 80001b2:	b113      	cbz	r3, 80001ba <__do_global_dtors_aux+0x12>
 80001b4:	4804      	ldr	r0, [pc, #16]	; (80001c8 <__do_global_dtors_aux+0x20>)
 80001b6:	f3af 8000 	nop.w
 80001ba:	2301      	movs	r3, #1
 80001bc:	7023      	strb	r3, [r4, #0]
 80001be:	bd10      	pop	{r4, pc}
 80001c0:	20000004 	.word	0x20000004
 80001c4:	00000000 	.word	0x00000000
 80001c8:	08000c44 	.word	0x08000c44

080001cc <frame_dummy>:
 80001cc:	b508      	push	{r3, lr}
 80001ce:	4b03      	ldr	r3, [pc, #12]	; (80001dc <frame_dummy+0x10>)
 80001d0:	b11b      	cbz	r3, 80001da <frame_dummy+0xe>
 80001d2:	4903      	ldr	r1, [pc, #12]	; (80001e0 <frame_dummy+0x14>)
 80001d4:	4803      	ldr	r0, [pc, #12]	; (80001e4 <frame_dummy+0x18>)
 80001d6:	f3af 8000 	nop.w
 80001da:	bd08      	pop	{r3, pc}
 80001dc:	00000000 	.word	0x00000000
 80001e0:	20000008 	.word	0x20000008
 80001e4:	08000c44 	.word	0x08000c44

080001e8 <__aeabi_drsub>:
 80001e8:	f081 4100 	eor.w	r1, r1, #2147483648	; 0x80000000
 80001ec:	e002      	b.n	80001f4 <__adddf3>
 80001ee:	bf00      	nop

080001f0 <__aeabi_dsub>:
 80001f0:	f083 4300 	eor.w	r3, r3, #2147483648	; 0x80000000

080001f4 <__adddf3>:
 80001f4:	b530      	push	{r4, r5, lr}
 80001f6:	ea4f 0441 	mov.w	r4, r1, lsl #1
 80001fa:	ea4f 0543 	mov.w	r5, r3, lsl #1
 80001fe:	ea94 0f05 	teq	r4, r5
 8000202:	bf08      	it	eq
 8000204:	ea90 0f02 	teqeq	r0, r2
 8000208:	bf1f      	itttt	ne
 800020a:	ea54 0c00 	orrsne.w	ip, r4, r0
 800020e:	ea55 0c02 	orrsne.w	ip, r5, r2
 8000212:	ea7f 5c64 	mvnsne.w	ip, r4, asr #21
 8000216:	ea7f 5c65 	mvnsne.w	ip, r5, asr #21
 800021a:	f000 80e2 	beq.w	80003e2 <__adddf3+0x1ee>
 800021e:	ea4f 5454 	mov.w	r4, r4, lsr #21
 8000222:	ebd4 5555 	rsbs	r5, r4, r5, lsr #21
 8000226:	bfb8      	it	lt
 8000228:	426d      	neglt	r5, r5
 800022a:	dd0c      	ble.n	8000246 <__adddf3+0x52>
 800022c:	442c      	add	r4, r5
 800022e:	ea80 0202 	eor.w	r2, r0, r2
 8000232:	ea81 0303 	eor.w	r3, r1, r3
 8000236:	ea82 0000 	eor.w	r0, r2, r0
 800023a:	ea83 0101 	eor.w	r1, r3, r1
 800023e:	ea80 0202 	eor.w	r2, r0, r2
 8000242:	ea81 0303 	eor.w	r3, r1, r3
 8000246:	2d36      	cmp	r5, #54	; 0x36
 8000248:	bf88      	it	hi
 800024a:	bd30      	pophi	{r4, r5, pc}
 800024c:	f011 4f00 	tst.w	r1, #2147483648	; 0x80000000
 8000250:	ea4f 3101 	mov.w	r1, r1, lsl #12
 8000254:	f44f 1c80 	mov.w	ip, #1048576	; 0x100000
 8000258:	ea4c 3111 	orr.w	r1, ip, r1, lsr #12
 800025c:	d002      	beq.n	8000264 <__adddf3+0x70>
 800025e:	4240      	negs	r0, r0
 8000260:	eb61 0141 	sbc.w	r1, r1, r1, lsl #1
 8000264:	f013 4f00 	tst.w	r3, #2147483648	; 0x80000000
 8000268:	ea4f 3303 	mov.w	r3, r3, lsl #12
 800026c:	ea4c 3313 	orr.w	r3, ip, r3, lsr #12
 8000270:	d002      	beq.n	8000278 <__adddf3+0x84>
 8000272:	4252      	negs	r2, r2
 8000274:	eb63 0343 	sbc.w	r3, r3, r3, lsl #1
 8000278:	ea94 0f05 	teq	r4, r5
 800027c:	f000 80a7 	beq.w	80003ce <__adddf3+0x1da>
 8000280:	f1a4 0401 	sub.w	r4, r4, #1
 8000284:	f1d5 0e20 	rsbs	lr, r5, #32
 8000288:	db0d      	blt.n	80002a6 <__adddf3+0xb2>
 800028a:	fa02 fc0e 	lsl.w	ip, r2, lr
 800028e:	fa22 f205 	lsr.w	r2, r2, r5
 8000292:	1880      	adds	r0, r0, r2
 8000294:	f141 0100 	adc.w	r1, r1, #0
 8000298:	fa03 f20e 	lsl.w	r2, r3, lr
 800029c:	1880      	adds	r0, r0, r2
 800029e:	fa43 f305 	asr.w	r3, r3, r5
 80002a2:	4159      	adcs	r1, r3
 80002a4:	e00e      	b.n	80002c4 <__adddf3+0xd0>
 80002a6:	f1a5 0520 	sub.w	r5, r5, #32
 80002aa:	f10e 0e20 	add.w	lr, lr, #32
 80002ae:	2a01      	cmp	r2, #1
 80002b0:	fa03 fc0e 	lsl.w	ip, r3, lr
 80002b4:	bf28      	it	cs
 80002b6:	f04c 0c02 	orrcs.w	ip, ip, #2
 80002ba:	fa43 f305 	asr.w	r3, r3, r5
 80002be:	18c0      	adds	r0, r0, r3
 80002c0:	eb51 71e3 	adcs.w	r1, r1, r3, asr #31
 80002c4:	f001 4500 	and.w	r5, r1, #2147483648	; 0x80000000
 80002c8:	d507      	bpl.n	80002da <__adddf3+0xe6>
 80002ca:	f04f 0e00 	mov.w	lr, #0
 80002ce:	f1dc 0c00 	rsbs	ip, ip, #0
 80002d2:	eb7e 0000 	sbcs.w	r0, lr, r0
 80002d6:	eb6e 0101 	sbc.w	r1, lr, r1
 80002da:	f5b1 1f80 	cmp.w	r1, #1048576	; 0x100000
 80002de:	d31b      	bcc.n	8000318 <__adddf3+0x124>
 80002e0:	f5b1 1f00 	cmp.w	r1, #2097152	; 0x200000
 80002e4:	d30c      	bcc.n	8000300 <__adddf3+0x10c>
 80002e6:	0849      	lsrs	r1, r1, #1
 80002e8:	ea5f 0030 	movs.w	r0, r0, rrx
 80002ec:	ea4f 0c3c 	mov.w	ip, ip, rrx
 80002f0:	f104 0401 	add.w	r4, r4, #1
 80002f4:	ea4f 5244 	mov.w	r2, r4, lsl #21
 80002f8:	f512 0f80 	cmn.w	r2, #4194304	; 0x400000
 80002fc:	f080 809a 	bcs.w	8000434 <__adddf3+0x240>
 8000300:	f1bc 4f00 	cmp.w	ip, #2147483648	; 0x80000000
 8000304:	bf08      	it	eq
 8000306:	ea5f 0c50 	movseq.w	ip, r0, lsr #1
 800030a:	f150 0000 	adcs.w	r0, r0, #0
 800030e:	eb41 5104 	adc.w	r1, r1, r4, lsl #20
 8000312:	ea41 0105 	orr.w	r1, r1, r5
 8000316:	bd30      	pop	{r4, r5, pc}
 8000318:	ea5f 0c4c 	movs.w	ip, ip, lsl #1
 800031c:	4140      	adcs	r0, r0
 800031e:	eb41 0101 	adc.w	r1, r1, r1
 8000322:	3c01      	subs	r4, #1
 8000324:	bf28      	it	cs
 8000326:	f5b1 1f80 	cmpcs.w	r1, #1048576	; 0x100000
 800032a:	d2e9      	bcs.n	8000300 <__adddf3+0x10c>
 800032c:	f091 0f00 	teq	r1, #0
 8000330:	bf04      	itt	eq
 8000332:	4601      	moveq	r1, r0
 8000334:	2000      	moveq	r0, #0
 8000336:	fab1 f381 	clz	r3, r1
 800033a:	bf08      	it	eq
 800033c:	3320      	addeq	r3, #32
 800033e:	f1a3 030b 	sub.w	r3, r3, #11
 8000342:	f1b3 0220 	subs.w	r2, r3, #32
 8000346:	da0c      	bge.n	8000362 <__adddf3+0x16e>
 8000348:	320c      	adds	r2, #12
 800034a:	dd08      	ble.n	800035e <__adddf3+0x16a>
 800034c:	f102 0c14 	add.w	ip, r2, #20
 8000350:	f1c2 020c 	rsb	r2, r2, #12
 8000354:	fa01 f00c 	lsl.w	r0, r1, ip
 8000358:	fa21 f102 	lsr.w	r1, r1, r2
 800035c:	e00c      	b.n	8000378 <__adddf3+0x184>
 800035e:	f102 0214 	add.w	r2, r2, #20
 8000362:	bfd8      	it	le
 8000364:	f1c2 0c20 	rsble	ip, r2, #32
 8000368:	fa01 f102 	lsl.w	r1, r1, r2
 800036c:	fa20 fc0c 	lsr.w	ip, r0, ip
 8000370:	bfdc      	itt	le
 8000372:	ea41 010c 	orrle.w	r1, r1, ip
 8000376:	4090      	lslle	r0, r2
 8000378:	1ae4      	subs	r4, r4, r3
 800037a:	bfa2      	ittt	ge
 800037c:	eb01 5104 	addge.w	r1, r1, r4, lsl #20
 8000380:	4329      	orrge	r1, r5
 8000382:	bd30      	popge	{r4, r5, pc}
 8000384:	ea6f 0404 	mvn.w	r4, r4
 8000388:	3c1f      	subs	r4, #31
 800038a:	da1c      	bge.n	80003c6 <__adddf3+0x1d2>
 800038c:	340c      	adds	r4, #12
 800038e:	dc0e      	bgt.n	80003ae <__adddf3+0x1ba>
 8000390:	f104 0414 	add.w	r4, r4, #20
 8000394:	f1c4 0220 	rsb	r2, r4, #32
 8000398:	fa20 f004 	lsr.w	r0, r0, r4
 800039c:	fa01 f302 	lsl.w	r3, r1, r2
 80003a0:	ea40 0003 	orr.w	r0, r0, r3
 80003a4:	fa21 f304 	lsr.w	r3, r1, r4
 80003a8:	ea45 0103 	orr.w	r1, r5, r3
 80003ac:	bd30      	pop	{r4, r5, pc}
 80003ae:	f1c4 040c 	rsb	r4, r4, #12
 80003b2:	f1c4 0220 	rsb	r2, r4, #32
 80003b6:	fa20 f002 	lsr.w	r0, r0, r2
 80003ba:	fa01 f304 	lsl.w	r3, r1, r4
 80003be:	ea40 0003 	orr.w	r0, r0, r3
 80003c2:	4629      	mov	r1, r5
 80003c4:	bd30      	pop	{r4, r5, pc}
 80003c6:	fa21 f004 	lsr.w	r0, r1, r4
 80003ca:	4629      	mov	r1, r5
 80003cc:	bd30      	pop	{r4, r5, pc}
 80003ce:	f094 0f00 	teq	r4, #0
 80003d2:	f483 1380 	eor.w	r3, r3, #1048576	; 0x100000
 80003d6:	bf06      	itte	eq
 80003d8:	f481 1180 	eoreq.w	r1, r1, #1048576	; 0x100000
 80003dc:	3401      	addeq	r4, #1
 80003de:	3d01      	subne	r5, #1
 80003e0:	e74e      	b.n	8000280 <__adddf3+0x8c>
 80003e2:	ea7f 5c64 	mvns.w	ip, r4, asr #21
 80003e6:	bf18      	it	ne
 80003e8:	ea7f 5c65 	mvnsne.w	ip, r5, asr #21
 80003ec:	d029      	beq.n	8000442 <__adddf3+0x24e>
 80003ee:	ea94 0f05 	teq	r4, r5
 80003f2:	bf08      	it	eq
 80003f4:	ea90 0f02 	teqeq	r0, r2
 80003f8:	d005      	beq.n	8000406 <__adddf3+0x212>
 80003fa:	ea54 0c00 	orrs.w	ip, r4, r0
 80003fe:	bf04      	itt	eq
 8000400:	4619      	moveq	r1, r3
 8000402:	4610      	moveq	r0, r2
 8000404:	bd30      	pop	{r4, r5, pc}
 8000406:	ea91 0f03 	teq	r1, r3
 800040a:	bf1e      	ittt	ne
 800040c:	2100      	movne	r1, #0
 800040e:	2000      	movne	r0, #0
 8000410:	bd30      	popne	{r4, r5, pc}
 8000412:	ea5f 5c54 	movs.w	ip, r4, lsr #21
 8000416:	d105      	bne.n	8000424 <__adddf3+0x230>
 8000418:	0040      	lsls	r0, r0, #1
 800041a:	4149      	adcs	r1, r1
 800041c:	bf28      	it	cs
 800041e:	f041 4100 	orrcs.w	r1, r1, #2147483648	; 0x80000000
 8000422:	bd30      	pop	{r4, r5, pc}
 8000424:	f514 0480 	adds.w	r4, r4, #4194304	; 0x400000
 8000428:	bf3c      	itt	cc
 800042a:	f501 1180 	addcc.w	r1, r1, #1048576	; 0x100000
 800042e:	bd30      	popcc	{r4, r5, pc}
 8000430:	f001 4500 	and.w	r5, r1, #2147483648	; 0x80000000
 8000434:	f045 41fe 	orr.w	r1, r5, #2130706432	; 0x7f000000
 8000438:	f441 0170 	orr.w	r1, r1, #15728640	; 0xf00000
 800043c:	f04f 0000 	mov.w	r0, #0
 8000440:	bd30      	pop	{r4, r5, pc}
 8000442:	ea7f 5c64 	mvns.w	ip, r4, asr #21
 8000446:	bf1a      	itte	ne
 8000448:	4619      	movne	r1, r3
 800044a:	4610      	movne	r0, r2
 800044c:	ea7f 5c65 	mvnseq.w	ip, r5, asr #21
 8000450:	bf1c      	itt	ne
 8000452:	460b      	movne	r3, r1
 8000454:	4602      	movne	r2, r0
 8000456:	ea50 3401 	orrs.w	r4, r0, r1, lsl #12
 800045a:	bf06      	itte	eq
 800045c:	ea52 3503 	orrseq.w	r5, r2, r3, lsl #12
 8000460:	ea91 0f03 	teqeq	r1, r3
 8000464:	f441 2100 	orrne.w	r1, r1, #524288	; 0x80000
 8000468:	bd30      	pop	{r4, r5, pc}
 800046a:	bf00      	nop

0800046c <__aeabi_ui2d>:
 800046c:	f090 0f00 	teq	r0, #0
 8000470:	bf04      	itt	eq
 8000472:	2100      	moveq	r1, #0
 8000474:	4770      	bxeq	lr
 8000476:	b530      	push	{r4, r5, lr}
 8000478:	f44f 6480 	mov.w	r4, #1024	; 0x400
 800047c:	f104 0432 	add.w	r4, r4, #50	; 0x32
 8000480:	f04f 0500 	mov.w	r5, #0
 8000484:	f04f 0100 	mov.w	r1, #0
 8000488:	e750      	b.n	800032c <__adddf3+0x138>
 800048a:	bf00      	nop

0800048c <__aeabi_i2d>:
 800048c:	f090 0f00 	teq	r0, #0
 8000490:	bf04      	itt	eq
 8000492:	2100      	moveq	r1, #0
 8000494:	4770      	bxeq	lr
 8000496:	b530      	push	{r4, r5, lr}
 8000498:	f44f 6480 	mov.w	r4, #1024	; 0x400
 800049c:	f104 0432 	add.w	r4, r4, #50	; 0x32
 80004a0:	f010 4500 	ands.w	r5, r0, #2147483648	; 0x80000000
 80004a4:	bf48      	it	mi
 80004a6:	4240      	negmi	r0, r0
 80004a8:	f04f 0100 	mov.w	r1, #0
 80004ac:	e73e      	b.n	800032c <__adddf3+0x138>
 80004ae:	bf00      	nop

080004b0 <__aeabi_f2d>:
 80004b0:	0042      	lsls	r2, r0, #1
 80004b2:	ea4f 01e2 	mov.w	r1, r2, asr #3
 80004b6:	ea4f 0131 	mov.w	r1, r1, rrx
 80004ba:	ea4f 7002 	mov.w	r0, r2, lsl #28
 80004be:	bf1f      	itttt	ne
 80004c0:	f012 437f 	andsne.w	r3, r2, #4278190080	; 0xff000000
 80004c4:	f093 4f7f 	teqne	r3, #4278190080	; 0xff000000
 80004c8:	f081 5160 	eorne.w	r1, r1, #939524096	; 0x38000000
 80004cc:	4770      	bxne	lr
 80004ce:	f032 427f 	bics.w	r2, r2, #4278190080	; 0xff000000
 80004d2:	bf08      	it	eq
 80004d4:	4770      	bxeq	lr
 80004d6:	f093 4f7f 	teq	r3, #4278190080	; 0xff000000
 80004da:	bf04      	itt	eq
 80004dc:	f441 2100 	orreq.w	r1, r1, #524288	; 0x80000
 80004e0:	4770      	bxeq	lr
 80004e2:	b530      	push	{r4, r5, lr}
 80004e4:	f44f 7460 	mov.w	r4, #896	; 0x380
 80004e8:	f001 4500 	and.w	r5, r1, #2147483648	; 0x80000000
 80004ec:	f021 4100 	bic.w	r1, r1, #2147483648	; 0x80000000
 80004f0:	e71c      	b.n	800032c <__adddf3+0x138>
 80004f2:	bf00      	nop

080004f4 <__aeabi_ul2d>:
 80004f4:	ea50 0201 	orrs.w	r2, r0, r1
 80004f8:	bf08      	it	eq
 80004fa:	4770      	bxeq	lr
 80004fc:	b530      	push	{r4, r5, lr}
 80004fe:	f04f 0500 	mov.w	r5, #0
 8000502:	e00a      	b.n	800051a <__aeabi_l2d+0x16>

08000504 <__aeabi_l2d>:
 8000504:	ea50 0201 	orrs.w	r2, r0, r1
 8000508:	bf08      	it	eq
 800050a:	4770      	bxeq	lr
 800050c:	b530      	push	{r4, r5, lr}
 800050e:	f011 4500 	ands.w	r5, r1, #2147483648	; 0x80000000
 8000512:	d502      	bpl.n	800051a <__aeabi_l2d+0x16>
 8000514:	4240      	negs	r0, r0
 8000516:	eb61 0141 	sbc.w	r1, r1, r1, lsl #1
 800051a:	f44f 6480 	mov.w	r4, #1024	; 0x400
 800051e:	f104 0432 	add.w	r4, r4, #50	; 0x32
 8000522:	ea5f 5c91 	movs.w	ip, r1, lsr #22
 8000526:	f43f aed8 	beq.w	80002da <__adddf3+0xe6>
 800052a:	f04f 0203 	mov.w	r2, #3
 800052e:	ea5f 0cdc 	movs.w	ip, ip, lsr #3
 8000532:	bf18      	it	ne
 8000534:	3203      	addne	r2, #3
 8000536:	ea5f 0cdc 	movs.w	ip, ip, lsr #3
 800053a:	bf18      	it	ne
 800053c:	3203      	addne	r2, #3
 800053e:	eb02 02dc 	add.w	r2, r2, ip, lsr #3
 8000542:	f1c2 0320 	rsb	r3, r2, #32
 8000546:	fa00 fc03 	lsl.w	ip, r0, r3
 800054a:	fa20 f002 	lsr.w	r0, r0, r2
 800054e:	fa01 fe03 	lsl.w	lr, r1, r3
 8000552:	ea40 000e 	orr.w	r0, r0, lr
 8000556:	fa21 f102 	lsr.w	r1, r1, r2
 800055a:	4414      	add	r4, r2
 800055c:	e6bd      	b.n	80002da <__adddf3+0xe6>
 800055e:	bf00      	nop

08000560 <__aeabi_dmul>:
 8000560:	b570      	push	{r4, r5, r6, lr}
 8000562:	f04f 0cff 	mov.w	ip, #255	; 0xff
 8000566:	f44c 6ce0 	orr.w	ip, ip, #1792	; 0x700
 800056a:	ea1c 5411 	ands.w	r4, ip, r1, lsr #20
 800056e:	bf1d      	ittte	ne
 8000570:	ea1c 5513 	andsne.w	r5, ip, r3, lsr #20
 8000574:	ea94 0f0c 	teqne	r4, ip
 8000578:	ea95 0f0c 	teqne	r5, ip
 800057c:	f000 f8de 	bleq	800073c <__aeabi_dmul+0x1dc>
 8000580:	442c      	add	r4, r5
 8000582:	ea81 0603 	eor.w	r6, r1, r3
 8000586:	ea21 514c 	bic.w	r1, r1, ip, lsl #21
 800058a:	ea23 534c 	bic.w	r3, r3, ip, lsl #21
 800058e:	ea50 3501 	orrs.w	r5, r0, r1, lsl #12
 8000592:	bf18      	it	ne
 8000594:	ea52 3503 	orrsne.w	r5, r2, r3, lsl #12
 8000598:	f441 1180 	orr.w	r1, r1, #1048576	; 0x100000
 800059c:	f443 1380 	orr.w	r3, r3, #1048576	; 0x100000
 80005a0:	d038      	beq.n	8000614 <__aeabi_dmul+0xb4>
 80005a2:	fba0 ce02 	umull	ip, lr, r0, r2
 80005a6:	f04f 0500 	mov.w	r5, #0
 80005aa:	fbe1 e502 	umlal	lr, r5, r1, r2
 80005ae:	f006 4200 	and.w	r2, r6, #2147483648	; 0x80000000
 80005b2:	fbe0 e503 	umlal	lr, r5, r0, r3
 80005b6:	f04f 0600 	mov.w	r6, #0
 80005ba:	fbe1 5603 	umlal	r5, r6, r1, r3
 80005be:	f09c 0f00 	teq	ip, #0
 80005c2:	bf18      	it	ne
 80005c4:	f04e 0e01 	orrne.w	lr, lr, #1
 80005c8:	f1a4 04ff 	sub.w	r4, r4, #255	; 0xff
 80005cc:	f5b6 7f00 	cmp.w	r6, #512	; 0x200
 80005d0:	f564 7440 	sbc.w	r4, r4, #768	; 0x300
 80005d4:	d204      	bcs.n	80005e0 <__aeabi_dmul+0x80>
 80005d6:	ea5f 0e4e 	movs.w	lr, lr, lsl #1
 80005da:	416d      	adcs	r5, r5
 80005dc:	eb46 0606 	adc.w	r6, r6, r6
 80005e0:	ea42 21c6 	orr.w	r1, r2, r6, lsl #11
 80005e4:	ea41 5155 	orr.w	r1, r1, r5, lsr #21
 80005e8:	ea4f 20c5 	mov.w	r0, r5, lsl #11
 80005ec:	ea40 505e 	orr.w	r0, r0, lr, lsr #21
 80005f0:	ea4f 2ece 	mov.w	lr, lr, lsl #11
 80005f4:	f1b4 0cfd 	subs.w	ip, r4, #253	; 0xfd
 80005f8:	bf88      	it	hi
 80005fa:	f5bc 6fe0 	cmphi.w	ip, #1792	; 0x700
 80005fe:	d81e      	bhi.n	800063e <__aeabi_dmul+0xde>
 8000600:	f1be 4f00 	cmp.w	lr, #2147483648	; 0x80000000
 8000604:	bf08      	it	eq
 8000606:	ea5f 0e50 	movseq.w	lr, r0, lsr #1
 800060a:	f150 0000 	adcs.w	r0, r0, #0
 800060e:	eb41 5104 	adc.w	r1, r1, r4, lsl #20
 8000612:	bd70      	pop	{r4, r5, r6, pc}
 8000614:	f006 4600 	and.w	r6, r6, #2147483648	; 0x80000000
 8000618:	ea46 0101 	orr.w	r1, r6, r1
 800061c:	ea40 0002 	orr.w	r0, r0, r2
 8000620:	ea81 0103 	eor.w	r1, r1, r3
 8000624:	ebb4 045c 	subs.w	r4, r4, ip, lsr #1
 8000628:	bfc2      	ittt	gt
 800062a:	ebd4 050c 	rsbsgt	r5, r4, ip
 800062e:	ea41 5104 	orrgt.w	r1, r1, r4, lsl #20
 8000632:	bd70      	popgt	{r4, r5, r6, pc}
 8000634:	f441 1180 	orr.w	r1, r1, #1048576	; 0x100000
 8000638:	f04f 0e00 	mov.w	lr, #0
 800063c:	3c01      	subs	r4, #1
 800063e:	f300 80ab 	bgt.w	8000798 <__aeabi_dmul+0x238>
 8000642:	f114 0f36 	cmn.w	r4, #54	; 0x36
 8000646:	bfde      	ittt	le
 8000648:	2000      	movle	r0, #0
 800064a:	f001 4100 	andle.w	r1, r1, #2147483648	; 0x80000000
 800064e:	bd70      	pople	{r4, r5, r6, pc}
 8000650:	f1c4 0400 	rsb	r4, r4, #0
 8000654:	3c20      	subs	r4, #32
 8000656:	da35      	bge.n	80006c4 <__aeabi_dmul+0x164>
 8000658:	340c      	adds	r4, #12
 800065a:	dc1b      	bgt.n	8000694 <__aeabi_dmul+0x134>
 800065c:	f104 0414 	add.w	r4, r4, #20
 8000660:	f1c4 0520 	rsb	r5, r4, #32
 8000664:	fa00 f305 	lsl.w	r3, r0, r5
 8000668:	fa20 f004 	lsr.w	r0, r0, r4
 800066c:	fa01 f205 	lsl.w	r2, r1, r5
 8000670:	ea40 0002 	orr.w	r0, r0, r2
 8000674:	f001 4200 	and.w	r2, r1, #2147483648	; 0x80000000
 8000678:	f021 4100 	bic.w	r1, r1, #2147483648	; 0x80000000
 800067c:	eb10 70d3 	adds.w	r0, r0, r3, lsr #31
 8000680:	fa21 f604 	lsr.w	r6, r1, r4
 8000684:	eb42 0106 	adc.w	r1, r2, r6
 8000688:	ea5e 0e43 	orrs.w	lr, lr, r3, lsl #1
 800068c:	bf08      	it	eq
 800068e:	ea20 70d3 	biceq.w	r0, r0, r3, lsr #31
 8000692:	bd70      	pop	{r4, r5, r6, pc}
 8000694:	f1c4 040c 	rsb	r4, r4, #12
 8000698:	f1c4 0520 	rsb	r5, r4, #32
 800069c:	fa00 f304 	lsl.w	r3, r0, r4
 80006a0:	fa20 f005 	lsr.w	r0, r0, r5
 80006a4:	fa01 f204 	lsl.w	r2, r1, r4
 80006a8:	ea40 0002 	orr.w	r0, r0, r2
 80006ac:	f001 4100 	and.w	r1, r1, #2147483648	; 0x80000000
 80006b0:	eb10 70d3 	adds.w	r0, r0, r3, lsr #31
 80006b4:	f141 0100 	adc.w	r1, r1, #0
 80006b8:	ea5e 0e43 	orrs.w	lr, lr, r3, lsl #1
 80006bc:	bf08      	it	eq
 80006be:	ea20 70d3 	biceq.w	r0, r0, r3, lsr #31
 80006c2:	bd70      	pop	{r4, r5, r6, pc}
 80006c4:	f1c4 0520 	rsb	r5, r4, #32
 80006c8:	fa00 f205 	lsl.w	r2, r0, r5
 80006cc:	ea4e 0e02 	orr.w	lr, lr, r2
 80006d0:	fa20 f304 	lsr.w	r3, r0, r4
 80006d4:	fa01 f205 	lsl.w	r2, r1, r5
 80006d8:	ea43 0302 	orr.w	r3, r3, r2
 80006dc:	fa21 f004 	lsr.w	r0, r1, r4
 80006e0:	f001 4100 	and.w	r1, r1, #2147483648	; 0x80000000
 80006e4:	fa21 f204 	lsr.w	r2, r1, r4
 80006e8:	ea20 0002 	bic.w	r0, r0, r2
 80006ec:	eb00 70d3 	add.w	r0, r0, r3, lsr #31
 80006f0:	ea5e 0e43 	orrs.w	lr, lr, r3, lsl #1
 80006f4:	bf08      	it	eq
 80006f6:	ea20 70d3 	biceq.w	r0, r0, r3, lsr #31
 80006fa:	bd70      	pop	{r4, r5, r6, pc}
 80006fc:	f094 0f00 	teq	r4, #0
 8000700:	d10f      	bne.n	8000722 <__aeabi_dmul+0x1c2>
 8000702:	f001 4600 	and.w	r6, r1, #2147483648	; 0x80000000
 8000706:	0040      	lsls	r0, r0, #1
 8000708:	eb41 0101 	adc.w	r1, r1, r1
 800070c:	f411 1f80 	tst.w	r1, #1048576	; 0x100000
 8000710:	bf08      	it	eq
 8000712:	3c01      	subeq	r4, #1
 8000714:	d0f7      	beq.n	8000706 <__aeabi_dmul+0x1a6>
 8000716:	ea41 0106 	orr.w	r1, r1, r6
 800071a:	f095 0f00 	teq	r5, #0
 800071e:	bf18      	it	ne
 8000720:	4770      	bxne	lr
 8000722:	f003 4600 	and.w	r6, r3, #2147483648	; 0x80000000
 8000726:	0052      	lsls	r2, r2, #1
 8000728:	eb43 0303 	adc.w	r3, r3, r3
 800072c:	f413 1f80 	tst.w	r3, #1048576	; 0x100000
 8000730:	bf08      	it	eq
 8000732:	3d01      	subeq	r5, #1
 8000734:	d0f7      	beq.n	8000726 <__aeabi_dmul+0x1c6>
 8000736:	ea43 0306 	orr.w	r3, r3, r6
 800073a:	4770      	bx	lr
 800073c:	ea94 0f0c 	teq	r4, ip
 8000740:	ea0c 5513 	and.w	r5, ip, r3, lsr #20
 8000744:	bf18      	it	ne
 8000746:	ea95 0f0c 	teqne	r5, ip
 800074a:	d00c      	beq.n	8000766 <__aeabi_dmul+0x206>
 800074c:	ea50 0641 	orrs.w	r6, r0, r1, lsl #1
 8000750:	bf18      	it	ne
 8000752:	ea52 0643 	orrsne.w	r6, r2, r3, lsl #1
 8000756:	d1d1      	bne.n	80006fc <__aeabi_dmul+0x19c>
 8000758:	ea81 0103 	eor.w	r1, r1, r3
 800075c:	f001 4100 	and.w	r1, r1, #2147483648	; 0x80000000
 8000760:	f04f 0000 	mov.w	r0, #0
 8000764:	bd70      	pop	{r4, r5, r6, pc}
 8000766:	ea50 0641 	orrs.w	r6, r0, r1, lsl #1
 800076a:	bf06      	itte	eq
 800076c:	4610      	moveq	r0, r2
 800076e:	4619      	moveq	r1, r3
 8000770:	ea52 0643 	orrsne.w	r6, r2, r3, lsl #1
 8000774:	d019      	beq.n	80007aa <__aeabi_dmul+0x24a>
 8000776:	ea94 0f0c 	teq	r4, ip
 800077a:	d102      	bne.n	8000782 <__aeabi_dmul+0x222>
 800077c:	ea50 3601 	orrs.w	r6, r0, r1, lsl #12
 8000780:	d113      	bne.n	80007aa <__aeabi_dmul+0x24a>
 8000782:	ea95 0f0c 	teq	r5, ip
 8000786:	d105      	bne.n	8000794 <__aeabi_dmul+0x234>
 8000788:	ea52 3603 	orrs.w	r6, r2, r3, lsl #12
 800078c:	bf1c      	itt	ne
 800078e:	4610      	movne	r0, r2
 8000790:	4619      	movne	r1, r3
 8000792:	d10a      	bne.n	80007aa <__aeabi_dmul+0x24a>
 8000794:	ea81 0103 	eor.w	r1, r1, r3
 8000798:	f001 4100 	and.w	r1, r1, #2147483648	; 0x80000000
 800079c:	f041 41fe 	orr.w	r1, r1, #2130706432	; 0x7f000000
 80007a0:	f441 0170 	orr.w	r1, r1, #15728640	; 0xf00000
 80007a4:	f04f 0000 	mov.w	r0, #0
 80007a8:	bd70      	pop	{r4, r5, r6, pc}
 80007aa:	f041 41fe 	orr.w	r1, r1, #2130706432	; 0x7f000000
 80007ae:	f441 0178 	orr.w	r1, r1, #16252928	; 0xf80000
 80007b2:	bd70      	pop	{r4, r5, r6, pc}

080007b4 <__aeabi_ddiv>:
 80007b4:	b570      	push	{r4, r5, r6, lr}
 80007b6:	f04f 0cff 	mov.w	ip, #255	; 0xff
 80007ba:	f44c 6ce0 	orr.w	ip, ip, #1792	; 0x700
 80007be:	ea1c 5411 	ands.w	r4, ip, r1, lsr #20
 80007c2:	bf1d      	ittte	ne
 80007c4:	ea1c 5513 	andsne.w	r5, ip, r3, lsr #20
 80007c8:	ea94 0f0c 	teqne	r4, ip
 80007cc:	ea95 0f0c 	teqne	r5, ip
 80007d0:	f000 f8a7 	bleq	8000922 <__aeabi_ddiv+0x16e>
 80007d4:	eba4 0405 	sub.w	r4, r4, r5
 80007d8:	ea81 0e03 	eor.w	lr, r1, r3
 80007dc:	ea52 3503 	orrs.w	r5, r2, r3, lsl #12
 80007e0:	ea4f 3101 	mov.w	r1, r1, lsl #12
 80007e4:	f000 8088 	beq.w	80008f8 <__aeabi_ddiv+0x144>
 80007e8:	ea4f 3303 	mov.w	r3, r3, lsl #12
 80007ec:	f04f 5580 	mov.w	r5, #268435456	; 0x10000000
 80007f0:	ea45 1313 	orr.w	r3, r5, r3, lsr #4
 80007f4:	ea43 6312 	orr.w	r3, r3, r2, lsr #24
 80007f8:	ea4f 2202 	mov.w	r2, r2, lsl #8
 80007fc:	ea45 1511 	orr.w	r5, r5, r1, lsr #4
 8000800:	ea45 6510 	orr.w	r5, r5, r0, lsr #24
 8000804:	ea4f 2600 	mov.w	r6, r0, lsl #8
 8000808:	f00e 4100 	and.w	r1, lr, #2147483648	; 0x80000000
 800080c:	429d      	cmp	r5, r3
 800080e:	bf08      	it	eq
 8000810:	4296      	cmpeq	r6, r2
 8000812:	f144 04fd 	adc.w	r4, r4, #253	; 0xfd
 8000816:	f504 7440 	add.w	r4, r4, #768	; 0x300
 800081a:	d202      	bcs.n	8000822 <__aeabi_ddiv+0x6e>
 800081c:	085b      	lsrs	r3, r3, #1
 800081e:	ea4f 0232 	mov.w	r2, r2, rrx
 8000822:	1ab6      	subs	r6, r6, r2
 8000824:	eb65 0503 	sbc.w	r5, r5, r3
 8000828:	085b      	lsrs	r3, r3, #1
 800082a:	ea4f 0232 	mov.w	r2, r2, rrx
 800082e:	f44f 1080 	mov.w	r0, #1048576	; 0x100000
 8000832:	f44f 2c00 	mov.w	ip, #524288	; 0x80000
 8000836:	ebb6 0e02 	subs.w	lr, r6, r2
 800083a:	eb75 0e03 	sbcs.w	lr, r5, r3
 800083e:	bf22      	ittt	cs
 8000840:	1ab6      	subcs	r6, r6, r2
 8000842:	4675      	movcs	r5, lr
 8000844:	ea40 000c 	orrcs.w	r0, r0, ip
 8000848:	085b      	lsrs	r3, r3, #1
 800084a:	ea4f 0232 	mov.w	r2, r2, rrx
 800084e:	ebb6 0e02 	subs.w	lr, r6, r2
 8000852:	eb75 0e03 	sbcs.w	lr, r5, r3
 8000856:	bf22      	ittt	cs
 8000858:	1ab6      	subcs	r6, r6, r2
 800085a:	4675      	movcs	r5, lr
 800085c:	ea40 005c 	orrcs.w	r0, r0, ip, lsr #1
 8000860:	085b      	lsrs	r3, r3, #1
 8000862:	ea4f 0232 	mov.w	r2, r2, rrx
 8000866:	ebb6 0e02 	subs.w	lr, r6, r2
 800086a:	eb75 0e03 	sbcs.w	lr, r5, r3
 800086e:	bf22      	ittt	cs
 8000870:	1ab6      	subcs	r6, r6, r2
 8000872:	4675      	movcs	r5, lr
 8000874:	ea40 009c 	orrcs.w	r0, r0, ip, lsr #2
 8000878:	085b      	lsrs	r3, r3, #1
 800087a:	ea4f 0232 	mov.w	r2, r2, rrx
 800087e:	ebb6 0e02 	subs.w	lr, r6, r2
 8000882:	eb75 0e03 	sbcs.w	lr, r5, r3
 8000886:	bf22      	ittt	cs
 8000888:	1ab6      	subcs	r6, r6, r2
 800088a:	4675      	movcs	r5, lr
 800088c:	ea40 00dc 	orrcs.w	r0, r0, ip, lsr #3
 8000890:	ea55 0e06 	orrs.w	lr, r5, r6
 8000894:	d018      	beq.n	80008c8 <__aeabi_ddiv+0x114>
 8000896:	ea4f 1505 	mov.w	r5, r5, lsl #4
 800089a:	ea45 7516 	orr.w	r5, r5, r6, lsr #28
 800089e:	ea4f 1606 	mov.w	r6, r6, lsl #4
 80008a2:	ea4f 03c3 	mov.w	r3, r3, lsl #3
 80008a6:	ea43 7352 	orr.w	r3, r3, r2, lsr #29
 80008aa:	ea4f 02c2 	mov.w	r2, r2, lsl #3
 80008ae:	ea5f 1c1c 	movs.w	ip, ip, lsr #4
 80008b2:	d1c0      	bne.n	8000836 <__aeabi_ddiv+0x82>
 80008b4:	f411 1f80 	tst.w	r1, #1048576	; 0x100000
 80008b8:	d10b      	bne.n	80008d2 <__aeabi_ddiv+0x11e>
 80008ba:	ea41 0100 	orr.w	r1, r1, r0
 80008be:	f04f 0000 	mov.w	r0, #0
 80008c2:	f04f 4c00 	mov.w	ip, #2147483648	; 0x80000000
 80008c6:	e7b6      	b.n	8000836 <__aeabi_ddiv+0x82>
 80008c8:	f411 1f80 	tst.w	r1, #1048576	; 0x100000
 80008cc:	bf04      	itt	eq
 80008ce:	4301      	orreq	r1, r0
 80008d0:	2000      	moveq	r0, #0
 80008d2:	f1b4 0cfd 	subs.w	ip, r4, #253	; 0xfd
 80008d6:	bf88      	it	hi
 80008d8:	f5bc 6fe0 	cmphi.w	ip, #1792	; 0x700
 80008dc:	f63f aeaf 	bhi.w	800063e <__aeabi_dmul+0xde>
 80008e0:	ebb5 0c03 	subs.w	ip, r5, r3
 80008e4:	bf04      	itt	eq
 80008e6:	ebb6 0c02 	subseq.w	ip, r6, r2
 80008ea:	ea5f 0c50 	movseq.w	ip, r0, lsr #1
 80008ee:	f150 0000 	adcs.w	r0, r0, #0
 80008f2:	eb41 5104 	adc.w	r1, r1, r4, lsl #20
 80008f6:	bd70      	pop	{r4, r5, r6, pc}
 80008f8:	f00e 4e00 	and.w	lr, lr, #2147483648	; 0x80000000
 80008fc:	ea4e 3111 	orr.w	r1, lr, r1, lsr #12
 8000900:	eb14 045c 	adds.w	r4, r4, ip, lsr #1
 8000904:	bfc2      	ittt	gt
 8000906:	ebd4 050c 	rsbsgt	r5, r4, ip
 800090a:	ea41 5104 	orrgt.w	r1, r1, r4, lsl #20
 800090e:	bd70      	popgt	{r4, r5, r6, pc}
 8000910:	f441 1180 	orr.w	r1, r1, #1048576	; 0x100000
 8000914:	f04f 0e00 	mov.w	lr, #0
 8000918:	3c01      	subs	r4, #1
 800091a:	e690      	b.n	800063e <__aeabi_dmul+0xde>
 800091c:	ea45 0e06 	orr.w	lr, r5, r6
 8000920:	e68d      	b.n	800063e <__aeabi_dmul+0xde>
 8000922:	ea0c 5513 	and.w	r5, ip, r3, lsr #20
 8000926:	ea94 0f0c 	teq	r4, ip
 800092a:	bf08      	it	eq
 800092c:	ea95 0f0c 	teqeq	r5, ip
 8000930:	f43f af3b 	beq.w	80007aa <__aeabi_dmul+0x24a>
 8000934:	ea94 0f0c 	teq	r4, ip
 8000938:	d10a      	bne.n	8000950 <__aeabi_ddiv+0x19c>
 800093a:	ea50 3401 	orrs.w	r4, r0, r1, lsl #12
 800093e:	f47f af34 	bne.w	80007aa <__aeabi_dmul+0x24a>
 8000942:	ea95 0f0c 	teq	r5, ip
 8000946:	f47f af25 	bne.w	8000794 <__aeabi_dmul+0x234>
 800094a:	4610      	mov	r0, r2
 800094c:	4619      	mov	r1, r3
 800094e:	e72c      	b.n	80007aa <__aeabi_dmul+0x24a>
 8000950:	ea95 0f0c 	teq	r5, ip
 8000954:	d106      	bne.n	8000964 <__aeabi_ddiv+0x1b0>
 8000956:	ea52 3503 	orrs.w	r5, r2, r3, lsl #12
 800095a:	f43f aefd 	beq.w	8000758 <__aeabi_dmul+0x1f8>
 800095e:	4610      	mov	r0, r2
 8000960:	4619      	mov	r1, r3
 8000962:	e722      	b.n	80007aa <__aeabi_dmul+0x24a>
 8000964:	ea50 0641 	orrs.w	r6, r0, r1, lsl #1
 8000968:	bf18      	it	ne
 800096a:	ea52 0643 	orrsne.w	r6, r2, r3, lsl #1
 800096e:	f47f aec5 	bne.w	80006fc <__aeabi_dmul+0x19c>
 8000972:	ea50 0441 	orrs.w	r4, r0, r1, lsl #1
 8000976:	f47f af0d 	bne.w	8000794 <__aeabi_dmul+0x234>
 800097a:	ea52 0543 	orrs.w	r5, r2, r3, lsl #1
 800097e:	f47f aeeb 	bne.w	8000758 <__aeabi_dmul+0x1f8>
 8000982:	e712      	b.n	80007aa <__aeabi_dmul+0x24a>

08000984 <__aeabi_d2uiz>:
 8000984:	004a      	lsls	r2, r1, #1
 8000986:	d211      	bcs.n	80009ac <__aeabi_d2uiz+0x28>
 8000988:	f512 1200 	adds.w	r2, r2, #2097152	; 0x200000
 800098c:	d211      	bcs.n	80009b2 <__aeabi_d2uiz+0x2e>
 800098e:	d50d      	bpl.n	80009ac <__aeabi_d2uiz+0x28>
 8000990:	f46f 7378 	mvn.w	r3, #992	; 0x3e0
 8000994:	ebb3 5262 	subs.w	r2, r3, r2, asr #21
 8000998:	d40e      	bmi.n	80009b8 <__aeabi_d2uiz+0x34>
 800099a:	ea4f 23c1 	mov.w	r3, r1, lsl #11
 800099e:	f043 4300 	orr.w	r3, r3, #2147483648	; 0x80000000
 80009a2:	ea43 5350 	orr.w	r3, r3, r0, lsr #21
 80009a6:	fa23 f002 	lsr.w	r0, r3, r2
 80009aa:	4770      	bx	lr
 80009ac:	f04f 0000 	mov.w	r0, #0
 80009b0:	4770      	bx	lr
 80009b2:	ea50 3001 	orrs.w	r0, r0, r1, lsl #12
 80009b6:	d102      	bne.n	80009be <__aeabi_d2uiz+0x3a>
 80009b8:	f04f 30ff 	mov.w	r0, #4294967295
 80009bc:	4770      	bx	lr
 80009be:	f04f 0000 	mov.w	r0, #0
 80009c2:	4770      	bx	lr

080009c4 <tickInc>:
 */
#include "delay.h"

volatile uint32_t ticks = 0;

void tickInc(uint32_t i){
 80009c4:	b480      	push	{r7}
 80009c6:	b083      	sub	sp, #12
 80009c8:	af00      	add	r7, sp, #0
 80009ca:	6078      	str	r0, [r7, #4]
    ticks += i;
 80009cc:	4b05      	ldr	r3, [pc, #20]	; (80009e4 <tickInc+0x20>)
 80009ce:	681a      	ldr	r2, [r3, #0]
 80009d0:	687b      	ldr	r3, [r7, #4]
 80009d2:	4413      	add	r3, r2
 80009d4:	4a03      	ldr	r2, [pc, #12]	; (80009e4 <tickInc+0x20>)
 80009d6:	6013      	str	r3, [r2, #0]
}
 80009d8:	bf00      	nop
 80009da:	370c      	adds	r7, #12
 80009dc:	46bd      	mov	sp, r7
 80009de:	f85d 7b04 	ldr.w	r7, [sp], #4
 80009e2:	4770      	bx	lr
 80009e4:	20000020 	.word	0x20000020

080009e8 <getTicks>:
    while ((getTicks() - tickStart) <= delay);
    
    return;
}

uint32_t getTicks(){
 80009e8:	b480      	push	{r7}
 80009ea:	af00      	add	r7, sp, #0
    return (uint32_t)ticks;
 80009ec:	4b03      	ldr	r3, [pc, #12]	; (80009fc <getTicks+0x14>)
 80009ee:	681b      	ldr	r3, [r3, #0]
 80009f0:	4618      	mov	r0, r3
 80009f2:	46bd      	mov	sp, r7
 80009f4:	f85d 7b04 	ldr.w	r7, [sp], #4
 80009f8:	4770      	bx	lr
 80009fa:	bf00      	nop
 80009fc:	20000020 	.word	0x20000020

08000a00 <__NVIC_SetPriority>:
  \param [in]      IRQn  Interrupt number.
  \param [in]  priority  Priority to set.
  \note    The priority cannot be set for every processor exception.
 */
__STATIC_INLINE void __NVIC_SetPriority(IRQn_Type IRQn, uint32_t priority)
{
 8000a00:	b480      	push	{r7}
 8000a02:	b083      	sub	sp, #12
 8000a04:	af00      	add	r7, sp, #0
 8000a06:	4603      	mov	r3, r0
 8000a08:	6039      	str	r1, [r7, #0]
 8000a0a:	71fb      	strb	r3, [r7, #7]
  if ((int32_t)(IRQn) >= 0)
 8000a0c:	f997 3007 	ldrsb.w	r3, [r7, #7]
 8000a10:	2b00      	cmp	r3, #0
 8000a12:	db0a      	blt.n	8000a2a <__NVIC_SetPriority+0x2a>
  {
    NVIC->IP[((uint32_t)IRQn)]               = (uint8_t)((priority << (8U - __NVIC_PRIO_BITS)) & (uint32_t)0xFFUL);
 8000a14:	683b      	ldr	r3, [r7, #0]
 8000a16:	b2da      	uxtb	r2, r3
 8000a18:	490c      	ldr	r1, [pc, #48]	; (8000a4c <__NVIC_SetPriority+0x4c>)
 8000a1a:	f997 3007 	ldrsb.w	r3, [r7, #7]
 8000a1e:	0112      	lsls	r2, r2, #4
 8000a20:	b2d2      	uxtb	r2, r2
 8000a22:	440b      	add	r3, r1
 8000a24:	f883 2300 	strb.w	r2, [r3, #768]	; 0x300
  }
  else
  {
    SCB->SHP[(((uint32_t)IRQn) & 0xFUL)-4UL] = (uint8_t)((priority << (8U - __NVIC_PRIO_BITS)) & (uint32_t)0xFFUL);
  }
}
 8000a28:	e00a      	b.n	8000a40 <__NVIC_SetPriority+0x40>
    SCB->SHP[(((uint32_t)IRQn) & 0xFUL)-4UL] = (uint8_t)((priority << (8U - __NVIC_PRIO_BITS)) & (uint32_t)0xFFUL);
 8000a2a:	683b      	ldr	r3, [r7, #0]
 8000a2c:	b2da      	uxtb	r2, r3
 8000a2e:	4908      	ldr	r1, [pc, #32]	; (8000a50 <__NVIC_SetPriority+0x50>)
 8000a30:	79fb      	ldrb	r3, [r7, #7]
 8000a32:	f003 030f 	and.w	r3, r3, #15
 8000a36:	3b04      	subs	r3, #4
 8000a38:	0112      	lsls	r2, r2, #4
 8000a3a:	b2d2      	uxtb	r2, r2
 8000a3c:	440b      	add	r3, r1
 8000a3e:	761a      	strb	r2, [r3, #24]
}
 8000a40:	bf00      	nop
 8000a42:	370c      	adds	r7, #12
 8000a44:	46bd      	mov	sp, r7
 8000a46:	f85d 7b04 	ldr.w	r7, [sp], #4
 8000a4a:	4770      	bx	lr
 8000a4c:	e000e100 	.word	0xe000e100
 8000a50:	e000ed00 	.word	0xe000ed00

08000a54 <SysTick_Config>:
  \note    When the variable <b>__Vendor_SysTickConfig</b> is set to 1, then the
           function <b>SysTick_Config</b> is not included. In this case, the file <b><i>device</i>.h</b>
           must contain a vendor-specific implementation of this function.
 */
__STATIC_INLINE uint32_t SysTick_Config(uint32_t ticks)
{
 8000a54:	b580      	push	{r7, lr}
 8000a56:	b082      	sub	sp, #8
 8000a58:	af00      	add	r7, sp, #0
 8000a5a:	6078      	str	r0, [r7, #4]
  if ((ticks - 1UL) > SysTick_LOAD_RELOAD_Msk)
 8000a5c:	687b      	ldr	r3, [r7, #4]
 8000a5e:	3b01      	subs	r3, #1
 8000a60:	f1b3 7f80 	cmp.w	r3, #16777216	; 0x1000000
 8000a64:	d301      	bcc.n	8000a6a <SysTick_Config+0x16>
  {
    return (1UL);                                                   /* Reload value impossible */
 8000a66:	2301      	movs	r3, #1
 8000a68:	e00f      	b.n	8000a8a <SysTick_Config+0x36>
  }

  SysTick->LOAD  = (uint32_t)(ticks - 1UL);                         /* set reload register */
 8000a6a:	4a0a      	ldr	r2, [pc, #40]	; (8000a94 <SysTick_Config+0x40>)
 8000a6c:	687b      	ldr	r3, [r7, #4]
 8000a6e:	3b01      	subs	r3, #1
 8000a70:	6053      	str	r3, [r2, #4]
  NVIC_SetPriority (SysTick_IRQn, (1UL << __NVIC_PRIO_BITS) - 1UL); /* set Priority for Systick Interrupt */
 8000a72:	210f      	movs	r1, #15
 8000a74:	f04f 30ff 	mov.w	r0, #4294967295
 8000a78:	f7ff ffc2 	bl	8000a00 <__NVIC_SetPriority>
  SysTick->VAL   = 0UL;                                             /* Load the SysTick Counter Value */
 8000a7c:	4b05      	ldr	r3, [pc, #20]	; (8000a94 <SysTick_Config+0x40>)
 8000a7e:	2200      	movs	r2, #0
 8000a80:	609a      	str	r2, [r3, #8]
  SysTick->CTRL  = SysTick_CTRL_CLKSOURCE_Msk |
 8000a82:	4b04      	ldr	r3, [pc, #16]	; (8000a94 <SysTick_Config+0x40>)
 8000a84:	2207      	movs	r2, #7
 8000a86:	601a      	str	r2, [r3, #0]
                   SysTick_CTRL_TICKINT_Msk   |
                   SysTick_CTRL_ENABLE_Msk;                         /* Enable SysTick IRQ and SysTick Timer */
  return (0UL);                                                     /* Function successful */
 8000a88:	2300      	movs	r3, #0
}
 8000a8a:	4618      	mov	r0, r3
 8000a8c:	3708      	adds	r7, #8
 8000a8e:	46bd      	mov	sp, r7
 8000a90:	bd80      	pop	{r7, pc}
 8000a92:	bf00      	nop
 8000a94:	e000e010 	.word	0xe000e010

08000a98 <main>:



/*Main ------------------------------------------*/
int main(void)
{
 8000a98:	b580      	push	{r7, lr}
 8000a9a:	b082      	sub	sp, #8
 8000a9c:	af00      	add	r7, sp, #0
	uint32_t temp;
	uint32_t ledTicks;
	/*habilitar el reloj*/
	RCC->AHB1ENR |= RCC_AHB1ENR_GPIODEN;  //1<<3
 8000a9e:	4b2c      	ldr	r3, [pc, #176]	; (8000b50 <main+0xb8>)
 8000aa0:	6b1b      	ldr	r3, [r3, #48]	; 0x30
 8000aa2:	4a2b      	ldr	r2, [pc, #172]	; (8000b50 <main+0xb8>)
 8000aa4:	f043 0308 	orr.w	r3, r3, #8
 8000aa8:	6313      	str	r3, [r2, #48]	; 0x30
	RCC->AHB1ENR |= RCC_AHB1ENR_GPIOAEN;
 8000aaa:	4b29      	ldr	r3, [pc, #164]	; (8000b50 <main+0xb8>)
 8000aac:	6b1b      	ldr	r3, [r3, #48]	; 0x30
 8000aae:	4a28      	ldr	r2, [pc, #160]	; (8000b50 <main+0xb8>)
 8000ab0:	f043 0301 	orr.w	r3, r3, #1
 8000ab4:	6313      	str	r3, [r2, #48]	; 0x30
	/**
	 * PD12 -> salida
	 *
	 */
	GPIOD->MODER &=~(GPIO_MODER_MODE12); 	//Clear
 8000ab6:	4b27      	ldr	r3, [pc, #156]	; (8000b54 <main+0xbc>)
 8000ab8:	681b      	ldr	r3, [r3, #0]
 8000aba:	4a26      	ldr	r2, [pc, #152]	; (8000b54 <main+0xbc>)
 8000abc:	f023 7340 	bic.w	r3, r3, #50331648	; 0x3000000
 8000ac0:	6013      	str	r3, [r2, #0]
	GPIOD->MODER |= GPIO_MODER_MODE12_0;	//Modo salida de proposito general
 8000ac2:	4b24      	ldr	r3, [pc, #144]	; (8000b54 <main+0xbc>)
 8000ac4:	681b      	ldr	r3, [r3, #0]
 8000ac6:	4a23      	ldr	r2, [pc, #140]	; (8000b54 <main+0xbc>)
 8000ac8:	f043 7380 	orr.w	r3, r3, #16777216	; 0x1000000
 8000acc:	6013      	str	r3, [r2, #0]
	GPIOD->OTYPER &=~ GPIO_OTYPER_OT12;		//PUSH PULL
 8000ace:	4b21      	ldr	r3, [pc, #132]	; (8000b54 <main+0xbc>)
 8000ad0:	685b      	ldr	r3, [r3, #4]
 8000ad2:	4a20      	ldr	r2, [pc, #128]	; (8000b54 <main+0xbc>)
 8000ad4:	f423 5380 	bic.w	r3, r3, #4096	; 0x1000
 8000ad8:	6053      	str	r3, [r2, #4]
	GPIOD->OSPEEDR &=~ GPIO_OSPEEDER_OSPEEDR12;
 8000ada:	4b1e      	ldr	r3, [pc, #120]	; (8000b54 <main+0xbc>)
 8000adc:	689b      	ldr	r3, [r3, #8]
 8000ade:	4a1d      	ldr	r2, [pc, #116]	; (8000b54 <main+0xbc>)
 8000ae0:	f023 7340 	bic.w	r3, r3, #50331648	; 0x3000000
 8000ae4:	6093      	str	r3, [r2, #8]
	/**
	 * PA0 -> entrada
	 */
	GPIOA->MODER &=~(GPIO_MODER_MODE0); //RESET STATE (INPUT FLOATING)
 8000ae6:	4b1c      	ldr	r3, [pc, #112]	; (8000b58 <main+0xc0>)
 8000ae8:	681b      	ldr	r3, [r3, #0]
 8000aea:	4a1b      	ldr	r2, [pc, #108]	; (8000b58 <main+0xc0>)
 8000aec:	f023 0303 	bic.w	r3, r3, #3
 8000af0:	6013      	str	r3, [r2, #0]
	GPIOA->PUPDR &=~ (GPIO_PUPDR_PUPD0); //no pull up /down
 8000af2:	4b19      	ldr	r3, [pc, #100]	; (8000b58 <main+0xc0>)
 8000af4:	68db      	ldr	r3, [r3, #12]
 8000af6:	4a18      	ldr	r2, [pc, #96]	; (8000b58 <main+0xc0>)
 8000af8:	f023 0303 	bic.w	r3, r3, #3
 8000afc:	60d3      	str	r3, [r2, #12]

	/**
	 * @brief systick
	 * 
	 */
	temp = SystemCoreClock / 1E+3;
 8000afe:	4b17      	ldr	r3, [pc, #92]	; (8000b5c <main+0xc4>)
 8000b00:	681b      	ldr	r3, [r3, #0]
 8000b02:	4618      	mov	r0, r3
 8000b04:	f7ff fcb2 	bl	800046c <__aeabi_ui2d>
 8000b08:	f04f 0200 	mov.w	r2, #0
 8000b0c:	4b14      	ldr	r3, [pc, #80]	; (8000b60 <main+0xc8>)
 8000b0e:	f7ff fe51 	bl	80007b4 <__aeabi_ddiv>
 8000b12:	4602      	mov	r2, r0
 8000b14:	460b      	mov	r3, r1
 8000b16:	4610      	mov	r0, r2
 8000b18:	4619      	mov	r1, r3
 8000b1a:	f7ff ff33 	bl	8000984 <__aeabi_d2uiz>
 8000b1e:	4603      	mov	r3, r0
 8000b20:	603b      	str	r3, [r7, #0]
	SysTick_Config(temp);
 8000b22:	6838      	ldr	r0, [r7, #0]
 8000b24:	f7ff ff96 	bl	8000a54 <SysTick_Config>
	ledTicks = getTicks();
 8000b28:	f7ff ff5e 	bl	80009e8 <getTicks>
 8000b2c:	6078      	str	r0, [r7, #4]
	for(;;){
		if((getTicks() - ledTicks)>= 100){
 8000b2e:	f7ff ff5b 	bl	80009e8 <getTicks>
 8000b32:	4602      	mov	r2, r0
 8000b34:	687b      	ldr	r3, [r7, #4]
 8000b36:	1ad3      	subs	r3, r2, r3
 8000b38:	2b63      	cmp	r3, #99	; 0x63
 8000b3a:	d9f8      	bls.n	8000b2e <main+0x96>
			ledTicks = getTicks();
 8000b3c:	f7ff ff54 	bl	80009e8 <getTicks>
 8000b40:	6078      	str	r0, [r7, #4]
			GPIOD->ODR ^= 1<<12;
 8000b42:	4b04      	ldr	r3, [pc, #16]	; (8000b54 <main+0xbc>)
 8000b44:	695b      	ldr	r3, [r3, #20]
 8000b46:	4a03      	ldr	r2, [pc, #12]	; (8000b54 <main+0xbc>)
 8000b48:	f483 5380 	eor.w	r3, r3, #4096	; 0x1000
 8000b4c:	6153      	str	r3, [r2, #20]
		if((getTicks() - ledTicks)>= 100){
 8000b4e:	e7ee      	b.n	8000b2e <main+0x96>
 8000b50:	40023800 	.word	0x40023800
 8000b54:	40020c00 	.word	0x40020c00
 8000b58:	40020000 	.word	0x40020000
 8000b5c:	20000000 	.word	0x20000000
 8000b60:	408f4000 	.word	0x408f4000

08000b64 <SysTick_Handler>:
 * 
 */
#include "stm32f4xx.h"
#include "delay.h"

void SysTick_Handler(void){
 8000b64:	b580      	push	{r7, lr}
 8000b66:	af00      	add	r7, sp, #0
    if(SysTick->CTRL & 1<<16){
 8000b68:	4b05      	ldr	r3, [pc, #20]	; (8000b80 <SysTick_Handler+0x1c>)
 8000b6a:	681b      	ldr	r3, [r3, #0]
 8000b6c:	f403 3380 	and.w	r3, r3, #65536	; 0x10000
 8000b70:	2b00      	cmp	r3, #0
 8000b72:	d002      	beq.n	8000b7a <SysTick_Handler+0x16>
        //todo
        tickInc(1);
 8000b74:	2001      	movs	r0, #1
 8000b76:	f7ff ff25 	bl	80009c4 <tickInc>
    }
}
 8000b7a:	bf00      	nop
 8000b7c:	bd80      	pop	{r7, pc}
 8000b7e:	bf00      	nop
 8000b80:	e000e010 	.word	0xe000e010

08000b84 <SystemInit>:
  *         configuration.
  * @param  None
  * @retval None
  */
void SystemInit(void)
{
 8000b84:	b480      	push	{r7}
 8000b86:	af00      	add	r7, sp, #0
  /* FPU settings ------------------------------------------------------------*/
  #if (__FPU_PRESENT == 1) && (__FPU_USED == 1)
    SCB->CPACR |= ((3UL << 10*2)|(3UL << 11*2));  /* set CP10 and CP11 Full Access */
 8000b88:	4b06      	ldr	r3, [pc, #24]	; (8000ba4 <SystemInit+0x20>)
 8000b8a:	f8d3 3088 	ldr.w	r3, [r3, #136]	; 0x88
 8000b8e:	4a05      	ldr	r2, [pc, #20]	; (8000ba4 <SystemInit+0x20>)
 8000b90:	f443 0370 	orr.w	r3, r3, #15728640	; 0xf00000
 8000b94:	f8c2 3088 	str.w	r3, [r2, #136]	; 0x88

  /* Configure the Vector Table location -------------------------------------*/
#if defined(USER_VECT_TAB_ADDRESS)
  SCB->VTOR = VECT_TAB_BASE_ADDRESS | VECT_TAB_OFFSET; /* Vector Table Relocation in Internal SRAM */
#endif /* USER_VECT_TAB_ADDRESS */
}
 8000b98:	bf00      	nop
 8000b9a:	46bd      	mov	sp, r7
 8000b9c:	f85d 7b04 	ldr.w	r7, [sp], #4
 8000ba0:	4770      	bx	lr
 8000ba2:	bf00      	nop
 8000ba4:	e000ed00 	.word	0xe000ed00

08000ba8 <Reset_Handler>:

  .section .text.Reset_Handler
  .weak Reset_Handler
  .type Reset_Handler, %function
Reset_Handler:
  ldr   r0, =_estack
 8000ba8:	480d      	ldr	r0, [pc, #52]	; (8000be0 <LoopForever+0x2>)
  mov   sp, r0          /* set stack pointer */
 8000baa:	4685      	mov	sp, r0
/* Call the clock system initialization function.*/
  bl  SystemInit
 8000bac:	f7ff ffea 	bl	8000b84 <SystemInit>

/* Copy the data segment initializers from flash to SRAM */
  ldr r0, =_sdata
 8000bb0:	480c      	ldr	r0, [pc, #48]	; (8000be4 <LoopForever+0x6>)
  ldr r1, =_edata
 8000bb2:	490d      	ldr	r1, [pc, #52]	; (8000be8 <LoopForever+0xa>)
  ldr r2, =_sidata
 8000bb4:	4a0d      	ldr	r2, [pc, #52]	; (8000bec <LoopForever+0xe>)
  movs r3, #0
 8000bb6:	2300      	movs	r3, #0
  b LoopCopyDataInit
 8000bb8:	e002      	b.n	8000bc0 <LoopCopyDataInit>

08000bba <CopyDataInit>:

CopyDataInit:
  ldr r4, [r2, r3]
 8000bba:	58d4      	ldr	r4, [r2, r3]
  str r4, [r0, r3]
 8000bbc:	50c4      	str	r4, [r0, r3]
  adds r3, r3, #4
 8000bbe:	3304      	adds	r3, #4

08000bc0 <LoopCopyDataInit>:

LoopCopyDataInit:
  adds r4, r0, r3
 8000bc0:	18c4      	adds	r4, r0, r3
  cmp r4, r1
 8000bc2:	428c      	cmp	r4, r1
  bcc CopyDataInit
 8000bc4:	d3f9      	bcc.n	8000bba <CopyDataInit>

/* Zero fill the bss segment. */
  ldr r2, =_sbss
 8000bc6:	4a0a      	ldr	r2, [pc, #40]	; (8000bf0 <LoopForever+0x12>)
  ldr r4, =_ebss
 8000bc8:	4c0a      	ldr	r4, [pc, #40]	; (8000bf4 <LoopForever+0x16>)
  movs r3, #0
 8000bca:	2300      	movs	r3, #0
  b LoopFillZerobss
 8000bcc:	e001      	b.n	8000bd2 <LoopFillZerobss>

08000bce <FillZerobss>:

FillZerobss:
  str  r3, [r2]
 8000bce:	6013      	str	r3, [r2, #0]
  adds r2, r2, #4
 8000bd0:	3204      	adds	r2, #4

08000bd2 <LoopFillZerobss>:

LoopFillZerobss:
  cmp r2, r4
 8000bd2:	42a2      	cmp	r2, r4
  bcc FillZerobss
 8000bd4:	d3fb      	bcc.n	8000bce <FillZerobss>

/* Call static constructors */
  bl __libc_init_array
 8000bd6:	f000 f811 	bl	8000bfc <__libc_init_array>
/* Call the application's entry point.*/
  bl main
 8000bda:	f7ff ff5d 	bl	8000a98 <main>

08000bde <LoopForever>:

LoopForever:
  b LoopForever
 8000bde:	e7fe      	b.n	8000bde <LoopForever>
  ldr   r0, =_estack
 8000be0:	20020000 	.word	0x20020000
  ldr r0, =_sdata
 8000be4:	20000000 	.word	0x20000000
  ldr r1, =_edata
 8000be8:	20000004 	.word	0x20000004
  ldr r2, =_sidata
 8000bec:	08000c64 	.word	0x08000c64
  ldr r2, =_sbss
 8000bf0:	20000004 	.word	0x20000004
  ldr r4, =_ebss
 8000bf4:	20000024 	.word	0x20000024

08000bf8 <ADC_IRQHandler>:
 * @retval : None
*/
  .section .text.Default_Handler,"ax",%progbits
Default_Handler:
Infinite_Loop:
  b Infinite_Loop
 8000bf8:	e7fe      	b.n	8000bf8 <ADC_IRQHandler>
	...

08000bfc <__libc_init_array>:
 8000bfc:	b570      	push	{r4, r5, r6, lr}
 8000bfe:	4d0d      	ldr	r5, [pc, #52]	; (8000c34 <__libc_init_array+0x38>)
 8000c00:	4c0d      	ldr	r4, [pc, #52]	; (8000c38 <__libc_init_array+0x3c>)
 8000c02:	1b64      	subs	r4, r4, r5
 8000c04:	10a4      	asrs	r4, r4, #2
 8000c06:	2600      	movs	r6, #0
 8000c08:	42a6      	cmp	r6, r4
 8000c0a:	d109      	bne.n	8000c20 <__libc_init_array+0x24>
 8000c0c:	4d0b      	ldr	r5, [pc, #44]	; (8000c3c <__libc_init_array+0x40>)
 8000c0e:	4c0c      	ldr	r4, [pc, #48]	; (8000c40 <__libc_init_array+0x44>)
 8000c10:	f000 f818 	bl	8000c44 <_init>
 8000c14:	1b64      	subs	r4, r4, r5
 8000c16:	10a4      	asrs	r4, r4, #2
 8000c18:	2600      	movs	r6, #0
 8000c1a:	42a6      	cmp	r6, r4
 8000c1c:	d105      	bne.n	8000c2a <__libc_init_array+0x2e>
 8000c1e:	bd70      	pop	{r4, r5, r6, pc}
 8000c20:	f855 3b04 	ldr.w	r3, [r5], #4
 8000c24:	4798      	blx	r3
 8000c26:	3601      	adds	r6, #1
 8000c28:	e7ee      	b.n	8000c08 <__libc_init_array+0xc>
 8000c2a:	f855 3b04 	ldr.w	r3, [r5], #4
 8000c2e:	4798      	blx	r3
 8000c30:	3601      	adds	r6, #1
 8000c32:	e7f2      	b.n	8000c1a <__libc_init_array+0x1e>
 8000c34:	08000c5c 	.word	0x08000c5c
 8000c38:	08000c5c 	.word	0x08000c5c
 8000c3c:	08000c5c 	.word	0x08000c5c
 8000c40:	08000c60 	.word	0x08000c60

08000c44 <_init>:
 8000c44:	b5f8      	push	{r3, r4, r5, r6, r7, lr}
 8000c46:	bf00      	nop
 8000c48:	bcf8      	pop	{r3, r4, r5, r6, r7}
 8000c4a:	bc08      	pop	{r3}
 8000c4c:	469e      	mov	lr, r3
 8000c4e:	4770      	bx	lr

08000c50 <_fini>:
 8000c50:	b5f8      	push	{r3, r4, r5, r6, r7, lr}
 8000c52:	bf00      	nop
 8000c54:	bcf8      	pop	{r3, r4, r5, r6, r7}
 8000c56:	bc08      	pop	{r3}
 8000c58:	469e      	mov	lr, r3
 8000c5a:	4770      	bx	lr
